target datalayout = "e-m:e-p270:32:32-p271:32:32-p272:64:64-i64:64-i128:128-f80:128-n8:16:32:64-S128"
target triple = "x86_64-pc-linux-gnu"

%struct._GtkDarktableGradientSlider = type { %struct._GtkDrawingArea, ptr, i32, i32, i32, [10 x double], [10 x double], [10 x i32], double, double, [3 x double], i32, i32, i32, i32, i32, i32, i32, i32, i32, ptr }
%struct._GtkDrawingArea = type { %struct._GtkWidget, ptr }
%struct._GtkWidget = type { %struct._GObject, ptr }
%struct._GObject = type { %struct._GTypeInstance, i32, ptr }
%struct._GTypeInstance = type { ptr }

@.str.1 = private unnamed_addr constant [16 x i8] c"gslider != NULL\00", align 1
@__func__.dtgtk_gradient_slider_multivalue_is_dragging = private unnamed_addr constant [45 x i8] c"dtgtk_gradient_slider_multivalue_is_dragging\00", align 1

; Function Attrs: nounwind uwtable
define i32 @dtgtk_gradient_slider_multivalue_is_dragging(ptr noundef %0) #0 {
  %2 = alloca i32, align 4
  %3 = alloca ptr, align 8
  %4 = alloca i32, align 4
  %5 = alloca i32, align 4
  store ptr %0, ptr %3, align 8, !tbaa !24
  br label %6

6:                                                ; preds = %1
  call void @llvm.lifetime.start.p0(i64 4, ptr %4) #11
  %7 = load ptr, ptr %3, align 8, !tbaa !24
  %8 = icmp ne ptr %7, null
  br i1 %8, label %9, label %10

9:                                                ; preds = %6
  store i32 1, ptr %4, align 4, !tbaa !13
  br label %11

10:                                               ; preds = %6
  store i32 0, ptr %4, align 4, !tbaa !13
  br label %11

11:                                               ; preds = %10, %9
  %12 = load i32, ptr %4, align 4, !tbaa !13
  store i32 %12, ptr %5, align 4, !tbaa !13
  call void @llvm.lifetime.end.p0(i64 4, ptr %4) #11
  %13 = load i32, ptr %5, align 4, !tbaa !13
  %14 = sext i32 %13 to i64
  %15 = call i64 @llvm.expect.i64(i64 %14, i64 1)
  %16 = icmp ne i64 %15, 0
  br i1 %16, label %17, label %18

17:                                               ; preds = %11
  br label %19

18:                                               ; preds = %11
  call void @g_return_if_fail_warning(ptr noundef null, ptr noundef @__func__.dtgtk_gradient_slider_multivalue_is_dragging, ptr noundef @.str.1)
  store i32 0, ptr %2, align 4
  br label %24

19:                                               ; preds = %17
  br label %20

20:                                               ; preds = %19
  %21 = load ptr, ptr %3, align 8, !tbaa !24
  %22 = getelementptr inbounds nuw %struct._GtkDarktableGradientSlider, ptr %21, i32 0, i32 13
  %23 = load i32, ptr %22, align 8, !tbaa !39
  store i32 %23, ptr %2, align 4
  br label %24

24:                                               ; preds = %20, %18
  %25 = load i32, ptr %2, align 4
  ret i32 %25
}